; Function Attrs: nounwind uwtable
define hidden void @zim_Phar_stopBuffering(ptr noundef readonly captures(none) %0, ptr readnone captures(none) %1) #0 {
  %3 = alloca ptr, align 8
  call void @llvm.lifetime.start.p0(i64 8, ptr nonnull %3) #20
  %4 = getelementptr inbounds nuw i8, ptr %0, i64 44
  %5 = load i32, ptr %4, align 4, !tbaa !8
  %.not = icmp eq i32 %5, 0
  br i1 %.not, label %.critedge, label %6, !prof !105

6:                                                ; preds = %2
  tail call void @zend_wrong_parameters_none_error() #20
  %7 = load ptr, ptr getelementptr inbounds nuw (i8, ptr @executor_globals, i64 960), align 8, !tbaa !9
  %8 = icmp ne ptr %7, null
  tail call void @llvm.assume(i1 %8)
  br label %42

.critedge:                                        ; preds = %2
  %9 = getelementptr inbounds nuw i8, ptr %0, i64 32
  %10 = load ptr, ptr %9, align 8, !tbaa !8
  %11 = getelementptr inbounds nuw i8, ptr %10, i64 24
  %12 = load ptr, ptr %11, align 8, !tbaa !109
  %13 = load i32, ptr %12, align 8, !tbaa !112
  %14 = sext i32 %13 to i64
  %15 = sub nsw i64 0, %14
  %16 = getelementptr inbounds i8, ptr %10, i64 %15
  %17 = load ptr, ptr %16, align 8, !tbaa !8
  %.not9 = icmp eq ptr %17, null
  br i1 %.not9, label %18, label %23

18:                                               ; preds = %.critedge
  %19 = load ptr, ptr @spl_ce_BadMethodCallException, align 8, !tbaa !54
  %20 = tail call ptr (ptr, i64, ptr, ...) @zend_throw_exception_ex(ptr noundef %19, i64 noundef 0, ptr noundef nonnull @.str.72) #20
  %21 = load ptr, ptr getelementptr inbounds nuw (i8, ptr @executor_globals, i64 960), align 8, !tbaa !9
  %22 = icmp ne ptr %21, null
  tail call void @llvm.assume(i1 %22)
  br label %42

23:                                               ; preds = %.critedge
  %24 = load i8, ptr getelementptr inbounds nuw (i8, ptr @phar_globals, i64 192), align 8, !tbaa !108, !range !48, !noundef !49
  %25 = trunc nuw i8 %24 to i1
  %26 = getelementptr inbounds nuw i8, ptr %17, i64 316
  %27 = load i16, ptr %26, align 4
  %28 = and i16 %27, 128
  %.not10 = icmp eq i16 %28, 0
  %or.cond = select i1 %25, i1 %.not10, i1 false
  br i1 %or.cond, label %29, label %._crit_edge

29:                                               ; preds = %23
  %30 = load ptr, ptr @spl_ce_UnexpectedValueException, align 8, !tbaa !54
  %31 = tail call ptr (ptr, i64, ptr, ...) @zend_throw_exception_ex(ptr noundef %30, i64 noundef 0, ptr noundef nonnull @.str.79) #20
  %32 = load ptr, ptr getelementptr inbounds nuw (i8, ptr @executor_globals, i64 960), align 8, !tbaa !9
  %33 = icmp ne ptr %32, null
  tail call void @llvm.assume(i1 %33)
  br label %42

._crit_edge:                                      ; preds = %23
  %34 = getelementptr inbounds nuw i8, ptr %17, i64 316
  %35 = and i16 %27, -17
  store i16 %35, ptr %34, align 4
  %36 = load ptr, ptr %16, align 8, !tbaa !8
  call void @phar_flush(ptr noundef %36, ptr noundef nonnull %3) #20
  %37 = load ptr, ptr %3, align 8, !tbaa !47
  %.not11 = icmp eq ptr %37, null
  br i1 %.not11, label %42, label %38

38:                                               ; preds = %._crit_edge
  %39 = load ptr, ptr @phar_ce_PharException, align 8, !tbaa !54
  %40 = call ptr (ptr, i64, ptr, ...) @zend_throw_exception_ex(ptr noundef %39, i64 noundef 0, ptr noundef nonnull @.str.9, ptr noundef nonnull %37) #20
  %41 = load ptr, ptr %3, align 8, !tbaa !47
  call void @_efree(ptr noundef %41) #20
  br label %42

42:                                               ; preds = %18, %29, %38, %._crit_edge, %6
  call void @llvm.lifetime.end.p0(i64 8, ptr nonnull %3) #20
  ret void
}